(dp0
S'learn_rate'
p1
F0.001
sS'num_dense_layers'
p2
I2
sS'num_lstm_units'
p3
I100
sS'num_dense_units'
p4
I500
sS'mb_size'
p5
I100
sS'num_lstm_layers'
p6
I2
sS'l2reg'
p7
F0.0
sS'num_epochs'
p8
I30
sS'rng_seed'
p9
I364
s.